target datalayout = "e-m:e-p270:32:32-p271:32:32-p272:64:64-i64:64-i128:128-f80:128-n8:16:32:64-S128"
target triple = "x86_64-pc-linux-gnu"

@proto_register_dvb_s2_modeadapt.ett_modeadapt = internal global [2 x ptr] [ptr @ett_dvb_s2_modeadapt, ptr @ett_dvb_s2_modeadapt_acm], align 16
@proto_register_dvb_s2_modeadapt.ett_bb = internal global [4 x ptr] [ptr @ett_dvb_s2_bb, ptr @ett_dvb_s2_bb_matype1, ptr @ett_dvbs2_fragments, ptr @ett_dvbs2_fragment], align 16
@proto_register_dvb_s2_modeadapt.ett_gse = internal global [5 x ptr] [ptr @ett_dvb_s2_gse, ptr @ett_dvb_s2_gse_hdr, ptr @ett_dvb_s2_gse_ncr, ptr @ett_dvb_s2_gse_fragments, ptr @ett_dvb_s2_gse_fragment], align 16
@.str.206 = private unnamed_addr constant [30 x i8] c"DVB-S2 Mode Adaptation Header\00", align 1
@.str.207 = private unnamed_addr constant [7 x i8] c"DVB-S2\00", align 1
@.str.208 = private unnamed_addr constant [17 x i8] c"dvb-s2_modeadapt\00", align 1
@proto_dvb_s2_modeadapt = internal global i32 0, align 4
@.str.209 = private unnamed_addr constant [22 x i8] c"DVB-S2 Baseband Frame\00", align 1
@.str.210 = private unnamed_addr constant [10 x i8] c"DVB-S2-BB\00", align 1
@.str.211 = private unnamed_addr constant [10 x i8] c"dvb-s2_bb\00", align 1
@proto_dvb_s2_bb = internal global i32 0, align 4
@.str.212 = private unnamed_addr constant [18 x i8] c"DVB-S2 GSE Packet\00", align 1
@.str.213 = private unnamed_addr constant [11 x i8] c"DVB-S2-GSE\00", align 1
@.str.214 = private unnamed_addr constant [11 x i8] c"dvb-s2_gse\00", align 1
@proto_dvb_s2_gse = internal global i32 0, align 4
@.str.215 = private unnamed_addr constant [7 x i8] c"enable\00", align 1
@.str.216 = private unnamed_addr constant [10 x i8] c"decode_df\00", align 1
@.str.217 = private unnamed_addr constant [32 x i8] c"Enable dissection of DATA FIELD\00", align 1
@.str.218 = private unnamed_addr constant [69 x i8] c"Check this to enable full protocol dissection of data above BBHeader\00", align 1
@dvb_s2_df_dissection = internal global i8 0, align 1
@.str.219 = private unnamed_addr constant [12 x i8] c"full_decode\00", align 1
@.str.220 = private unnamed_addr constant [30 x i8] c"Enable dissection of GSE data\00", align 1
@.str.221 = private unnamed_addr constant [70 x i8] c"Check this to enable full protocol dissection of data above GSE Layer\00", align 1
@dvb_s2_full_dissection = internal global i8 0, align 1
@.str.222 = private unnamed_addr constant [18 x i8] c"default_modeadapt\00", align 1
@.str.223 = private unnamed_addr constant [36 x i8] c"Preferred Mode Adaptation Interface\00", align 1
@.str.224 = private unnamed_addr constant [40 x i8] c"The preferred Mode Adaptation Interface\00", align 1
@dvb_s2_default_modeadapt = internal global i32 3, align 4
@.str.225 = private unnamed_addr constant [18 x i8] c"try_all_modeadapt\00", align 1
@.str.226 = private unnamed_addr constant [40 x i8] c"Try all Mode Adaptation Interface Types\00", align 1
@.str.227 = private unnamed_addr constant [168 x i8] c"Try all supported Mode Adaptation Interface Types, using the preferred value in the case of ambiguity; if unset, only look for Base Band Frames with the preferred type\00", align 1
@dvb_s2_try_all_modeadapt = internal global i8 1, align 1
@.str.228 = private unnamed_addr constant [21 x i8] c"dynamic.payload.type\00", align 1
@virtual_stream_hashtable = internal global ptr null, align 8
@.str.229 = private unnamed_addr constant [30 x i8] c"DVB-S2 Mode adaptation header\00", align 1
@dvb_s2_modeadapt_handle = internal global ptr null, align 8

; Function Attrs: null_pointer_is_valid sspstrong uwtable
define hidden void @proto_register_dvb_s2_modeadapt() #0 {
  %1 = alloca ptr, align 8
  %2 = alloca ptr, align 8
  %3 = alloca ptr, align 8
  call void @llvm.lifetime.start.p0(i64 8, ptr %1) #10
  call void @llvm.lifetime.start.p0(i64 8, ptr %2) #10
  call void @llvm.lifetime.start.p0(i64 8, ptr %3) #10
  %4 = call i32 @proto_register_protocol(ptr noundef @.str.206, ptr noundef @.str.207, ptr noundef @.str.208)
  store i32 %4, ptr @proto_dvb_s2_modeadapt, align 4
  %5 = call i32 @proto_register_protocol(ptr noundef @.str.209, ptr noundef @.str.210, ptr noundef @.str.211)
  store i32 %5, ptr @proto_dvb_s2_bb, align 4
  %6 = call i32 @proto_register_protocol(ptr noundef @.str.212, ptr noundef @.str.213, ptr noundef @.str.214)
  store i32 %6, ptr @proto_dvb_s2_gse, align 4
  %7 = load i32, ptr @proto_dvb_s2_modeadapt, align 4
  call void @proto_register_field_array(i32 noundef %7, ptr noundef @proto_register_dvb_s2_modeadapt.hf_modeadapt, i32 noundef 8)
  call void @proto_register_subtree_array(ptr noundef @proto_register_dvb_s2_modeadapt.ett_modeadapt, i32 noundef 2)
  %8 = load i32, ptr @proto_dvb_s2_bb, align 4
  call void @proto_register_field_array(i32 noundef %8, ptr noundef @proto_register_dvb_s2_modeadapt.hf_bb, i32 noundef 37)
  call void @proto_register_subtree_array(ptr noundef @proto_register_dvb_s2_modeadapt.ett_bb, i32 noundef 4)
  %9 = load i32, ptr @proto_dvb_s2_bb, align 4
  %10 = call ptr @expert_register_protocol(i32 noundef %9)
  store ptr %10, ptr %2, align 8
  %11 = load ptr, ptr %2, align 8
  call void @expert_register_field_array(ptr noundef %11, ptr noundef @proto_register_dvb_s2_modeadapt.ei, i32 noundef 10)
  %12 = load i32, ptr @proto_dvb_s2_gse, align 4
  call void @proto_register_field_array(i32 noundef %12, ptr noundef @proto_register_dvb_s2_modeadapt.hf_gse, i32 noundef 28)
  call void @proto_register_subtree_array(ptr noundef @proto_register_dvb_s2_modeadapt.ett_gse, i32 noundef 5)
  %13 = load i32, ptr @proto_dvb_s2_gse, align 4
  %14 = call ptr @expert_register_protocol(i32 noundef %13)
  store ptr %14, ptr %3, align 8
  %15 = load ptr, ptr %3, align 8
  call void @expert_register_field_array(ptr noundef %15, ptr noundef @proto_register_dvb_s2_modeadapt.ei_gse, i32 noundef 3)
  %16 = load i32, ptr @proto_dvb_s2_modeadapt, align 4
  %17 = call ptr @prefs_register_protocol(i32 noundef %16, ptr noundef null)
  store ptr %17, ptr %1, align 8
  %18 = load ptr, ptr %1, align 8
  call void @prefs_register_obsolete_preference(ptr noundef %18, ptr noundef @.str.215)
  %19 = load ptr, ptr %1, align 8
  call void @prefs_register_bool_preference(ptr noundef %19, ptr noundef @.str.216, ptr noundef @.str.217, ptr noundef @.str.218, ptr noundef @dvb_s2_df_dissection)
  %20 = load ptr, ptr %1, align 8
  call void @prefs_register_bool_preference(ptr noundef %20, ptr noundef @.str.219, ptr noundef @.str.220, ptr noundef @.str.221, ptr noundef @dvb_s2_full_dissection)
  %21 = load ptr, ptr %1, align 8
  call void @prefs_register_enum_preference(ptr noundef %21, ptr noundef @.str.222, ptr noundef @.str.223, ptr noundef @.str.224, ptr noundef @dvb_s2_default_modeadapt, ptr noundef @dvb_s2_modeadapt_enum, i1 noundef zeroext false)
  %22 = load ptr, ptr %1, align 8
  call void @prefs_register_bool_preference(ptr noundef %22, ptr noundef @.str.225, ptr noundef @.str.226, ptr noundef @.str.227, ptr noundef @dvb_s2_try_all_modeadapt)
  %23 = load ptr, ptr %1, align 8
  call void @prefs_register_obsolete_preference(ptr noundef %23, ptr noundef @.str.228)
  call void @register_init_routine(ptr noundef @dvb_s2_gse_defragment_init)
  call void @register_init_routine(ptr noundef @virtual_stream_init)
  %24 = call ptr @wmem_epan_scope()
  %25 = call ptr @wmem_file_scope()
  %26 = call noalias ptr @wmem_map_new_autoreset(ptr noundef %24, ptr noundef %25, ptr noundef @virtual_stream_hash, ptr noundef @virtual_stream_equal)
  store ptr %26, ptr @virtual_stream_hashtable, align 8
  %27 = load i32, ptr @proto_dvb_s2_modeadapt, align 4
  %28 = call ptr @register_dissector_with_description(ptr noundef @.str.208, ptr noundef @.str.229, ptr noundef @dissect_dvb_s2_modeadapt, i32 noundef %27)
  store ptr %28, ptr @dvb_s2_modeadapt_handle, align 8
  call void @llvm.lifetime.end.p0(i64 8, ptr %3) #10
  call void @llvm.lifetime.end.p0(i64 8, ptr %2) #10
  call void @llvm.lifetime.end.p0(i64 8, ptr %1) #10
  ret void
}