; Function Attrs: null_pointer_is_valid sspstrong uwtable
define hidden void @proto_register_dvb_s2_modeadapt() local_unnamed_addr #0 {
  %1 = tail call i32 @proto_register_protocol(ptr noundef nonnull @.str.206, ptr noundef nonnull @.str.207, ptr noundef nonnull @.str.208)
  store i32 %1, ptr @proto_dvb_s2_modeadapt, align 4
  %2 = tail call i32 @proto_register_protocol(ptr noundef nonnull @.str.209, ptr noundef nonnull @.str.210, ptr noundef nonnull @.str.211)
  store i32 %2, ptr @proto_dvb_s2_bb, align 4
  %3 = tail call i32 @proto_register_protocol(ptr noundef nonnull @.str.212, ptr noundef nonnull @.str.213, ptr noundef nonnull @.str.214)
  store i32 %3, ptr @proto_dvb_s2_gse, align 4
  %4 = load i32, ptr @proto_dvb_s2_modeadapt, align 4
  tail call void @proto_register_field_array(i32 noundef %4, ptr noundef nonnull @proto_register_dvb_s2_modeadapt.hf_modeadapt, i32 noundef 8)
  tail call void @proto_register_subtree_array(ptr noundef nonnull @proto_register_dvb_s2_modeadapt.ett_modeadapt, i32 noundef 2)
  %5 = load i32, ptr @proto_dvb_s2_bb, align 4
  tail call void @proto_register_field_array(i32 noundef %5, ptr noundef nonnull @proto_register_dvb_s2_modeadapt.hf_bb, i32 noundef 37)
  tail call void @proto_register_subtree_array(ptr noundef nonnull @proto_register_dvb_s2_modeadapt.ett_bb, i32 noundef 4)
  %6 = load i32, ptr @proto_dvb_s2_bb, align 4
  %7 = tail call ptr @expert_register_protocol(i32 noundef %6)
  tail call void @expert_register_field_array(ptr noundef %7, ptr noundef nonnull @proto_register_dvb_s2_modeadapt.ei, i32 noundef 10)
  %8 = load i32, ptr @proto_dvb_s2_gse, align 4
  tail call void @proto_register_field_array(i32 noundef %8, ptr noundef nonnull @proto_register_dvb_s2_modeadapt.hf_gse, i32 noundef 28)
  tail call void @proto_register_subtree_array(ptr noundef nonnull @proto_register_dvb_s2_modeadapt.ett_gse, i32 noundef 5)
  %9 = load i32, ptr @proto_dvb_s2_gse, align 4
  %10 = tail call ptr @expert_register_protocol(i32 noundef %9)
  tail call void @expert_register_field_array(ptr noundef %10, ptr noundef nonnull @proto_register_dvb_s2_modeadapt.ei_gse, i32 noundef 3)
  %11 = load i32, ptr @proto_dvb_s2_modeadapt, align 4
  %12 = tail call ptr @prefs_register_protocol(i32 noundef %11, ptr noundef null)
  tail call void @prefs_register_obsolete_preference(ptr noundef %12, ptr noundef nonnull @.str.215)
  tail call void @prefs_register_bool_preference(ptr noundef %12, ptr noundef nonnull @.str.216, ptr noundef nonnull @.str.217, ptr noundef nonnull @.str.218, ptr noundef nonnull @dvb_s2_df_dissection)
  tail call void @prefs_register_bool_preference(ptr noundef %12, ptr noundef nonnull @.str.219, ptr noundef nonnull @.str.220, ptr noundef nonnull @.str.221, ptr noundef nonnull @dvb_s2_full_dissection)
  tail call void @prefs_register_enum_preference(ptr noundef %12, ptr noundef nonnull @.str.222, ptr noundef nonnull @.str.223, ptr noundef nonnull @.str.224, ptr noundef nonnull @dvb_s2_default_modeadapt, ptr noundef nonnull @dvb_s2_modeadapt_enum, i1 noundef zeroext false)
  tail call void @prefs_register_bool_preference(ptr noundef %12, ptr noundef nonnull @.str.225, ptr noundef nonnull @.str.226, ptr noundef nonnull @.str.227, ptr noundef nonnull @dvb_s2_try_all_modeadapt)
  tail call void @prefs_register_obsolete_preference(ptr noundef %12, ptr noundef nonnull @.str.228)
  tail call void @register_init_routine(ptr noundef nonnull @dvb_s2_gse_defragment_init)
  tail call void @register_init_routine(ptr noundef nonnull @virtual_stream_init)
  %13 = tail call ptr @wmem_epan_scope()
  %14 = tail call ptr @wmem_file_scope()
  %15 = tail call noalias ptr @wmem_map_new_autoreset(ptr noundef %13, ptr noundef %14, ptr noundef nonnull @virtual_stream_hash, ptr noundef nonnull @virtual_stream_equal)
  store ptr %15, ptr @virtual_stream_hashtable, align 8
  %16 = load i32, ptr @proto_dvb_s2_modeadapt, align 4
  %17 = tail call ptr @register_dissector_with_description(ptr noundef nonnull @.str.208, ptr noundef nonnull @.str.229, ptr noundef nonnull @dissect_dvb_s2_modeadapt, i32 noundef %16)
  store ptr %17, ptr @dvb_s2_modeadapt_handle, align 8
  ret void
}